target datalayout = "e-m:e-p270:32:32-p271:32:32-p272:64:64-i64:64-i128:128-f80:128-n8:16:32:64-S128"
target triple = "x86_64-pc-linux-gnu"

%"class.std::vector.0" = type { %"struct.std::_Vector_base.1" }
%"struct.std::_Vector_base.1" = type { %"struct.std::_Vector_base<int, std::allocator<int>>::_Vector_impl" }
%"struct.std::_Vector_base<int, std::allocator<int>>::_Vector_impl" = type { %"struct.std::_Vector_base<int, std::allocator<int>>::_Vector_impl_data" }
%"struct.std::_Vector_base<int, std::allocator<int>>::_Vector_impl_data" = type { ptr, ptr, ptr }
%"class.cv::Size_" = type { i32, i32 }
%"struct.cv::MatSize" = type { ptr }
%"struct.cv::MatStep" = type { ptr, [2 x i64] }
%"class.cv::UMat" = type { i32, i32, i32, i32, ptr, i32, ptr, i64, %"struct.cv::MatSize", %"struct.cv::MatStep" }
%"class.std::__shared_count" = type { ptr }
%"struct.cv::Ptr.15" = type { %"class.std::shared_ptr.16" }
%"class.std::shared_ptr.16" = type { %"class.std::__shared_ptr.17" }
%"class.std::__shared_ptr.17" = type { ptr, %"class.std::__shared_count" }
%"struct.std::_Vector_base.25" = type { %"struct.std::_Vector_base<float, std::allocator<float>>::_Vector_impl" }
%"struct.std::_Vector_base<float, std::allocator<float>>::_Vector_impl" = type { %"struct.std::_Vector_base<float, std::allocator<float>>::_Vector_impl_data" }
%"struct.std::_Vector_base<float, std::allocator<float>>::_Vector_impl_data" = type { ptr, ptr, ptr }
%"class.cv::CascadeClassifierImpl" = type { %"class.cv::BaseCascadeClassifier", %"class.cv::CascadeClassifierImpl::Data", %"struct.cv::Ptr.15", %"struct.cv::Ptr.96", %"struct.cv::Ptr.100", %"class.cv::UMat", %"class.cv::UMat", %"class.cv::UMat", %"class.cv::UMat", %"class.cv::UMat", %"class.cv::UMat", %"class.std::recursive_mutex" }
%"class.cv::BaseCascadeClassifier" = type { %"class.cv::Algorithm" }
%"class.cv::Algorithm" = type { ptr }
%"class.cv::CascadeClassifierImpl::Data" = type { i32, i32, i32, i32, i32, %"class.cv::Size_", %"class.std::vector.76", %"class.std::vector.81", %"class.std::vector.86", %"class.std::vector.24", %"class.std::vector.0", %"class.std::vector.91" }
%"class.std::vector.76" = type { %"struct.std::_Vector_base.77" }
%"struct.std::_Vector_base.77" = type { %"struct.std::_Vector_base<cv::CascadeClassifierImpl::Data::Stage, std::allocator<cv::CascadeClassifierImpl::Data::Stage>>::_Vector_impl" }
%"struct.std::_Vector_base<cv::CascadeClassifierImpl::Data::Stage, std::allocator<cv::CascadeClassifierImpl::Data::Stage>>::_Vector_impl" = type { %"struct.std::_Vector_base<cv::CascadeClassifierImpl::Data::Stage, std::allocator<cv::CascadeClassifierImpl::Data::Stage>>::_Vector_impl_data" }
%"struct.std::_Vector_base<cv::CascadeClassifierImpl::Data::Stage, std::allocator<cv::CascadeClassifierImpl::Data::Stage>>::_Vector_impl_data" = type { ptr, ptr, ptr }
%"class.std::vector.81" = type { %"struct.std::_Vector_base.82" }
%"struct.std::_Vector_base.82" = type { %"struct.std::_Vector_base<cv::CascadeClassifierImpl::Data::DTree, std::allocator<cv::CascadeClassifierImpl::Data::DTree>>::_Vector_impl" }
%"struct.std::_Vector_base<cv::CascadeClassifierImpl::Data::DTree, std::allocator<cv::CascadeClassifierImpl::Data::DTree>>::_Vector_impl" = type { %"struct.std::_Vector_base<cv::CascadeClassifierImpl::Data::DTree, std::allocator<cv::CascadeClassifierImpl::Data::DTree>>::_Vector_impl_data" }
%"struct.std::_Vector_base<cv::CascadeClassifierImpl::Data::DTree, std::allocator<cv::CascadeClassifierImpl::Data::DTree>>::_Vector_impl_data" = type { ptr, ptr, ptr }
%"class.std::vector.86" = type { %"struct.std::_Vector_base.87" }
%"struct.std::_Vector_base.87" = type { %"struct.std::_Vector_base<cv::CascadeClassifierImpl::Data::DTreeNode, std::allocator<cv::CascadeClassifierImpl::Data::DTreeNode>>::_Vector_impl" }
%"struct.std::_Vector_base<cv::CascadeClassifierImpl::Data::DTreeNode, std::allocator<cv::CascadeClassifierImpl::Data::DTreeNode>>::_Vector_impl" = type { %"struct.std::_Vector_base<cv::CascadeClassifierImpl::Data::DTreeNode, std::allocator<cv::CascadeClassifierImpl::Data::DTreeNode>>::_Vector_impl_data" }
%"struct.std::_Vector_base<cv::CascadeClassifierImpl::Data::DTreeNode, std::allocator<cv::CascadeClassifierImpl::Data::DTreeNode>>::_Vector_impl_data" = type { ptr, ptr, ptr }
%"class.std::vector.24" = type { %"struct.std::_Vector_base.25" }
%"class.std::vector.91" = type { %"struct.std::_Vector_base.92" }
%"struct.std::_Vector_base.92" = type { %"struct.std::_Vector_base<cv::CascadeClassifierImpl::Data::Stump, std::allocator<cv::CascadeClassifierImpl::Data::Stump>>::_Vector_impl" }
%"struct.std::_Vector_base<cv::CascadeClassifierImpl::Data::Stump, std::allocator<cv::CascadeClassifierImpl::Data::Stump>>::_Vector_impl" = type { %"struct.std::_Vector_base<cv::CascadeClassifierImpl::Data::Stump, std::allocator<cv::CascadeClassifierImpl::Data::Stump>>::_Vector_impl_data" }
%"struct.std::_Vector_base<cv::CascadeClassifierImpl::Data::Stump, std::allocator<cv::CascadeClassifierImpl::Data::Stump>>::_Vector_impl_data" = type { ptr, ptr, ptr }
%"struct.cv::Ptr.96" = type { %"class.std::shared_ptr.97" }
%"class.std::shared_ptr.97" = type { %"class.std::__shared_ptr.98" }
%"class.std::__shared_ptr.98" = type { ptr, %"class.std::__shared_count" }
%"struct.cv::Ptr.100" = type { %"class.std::shared_ptr.101" }
%"class.std::shared_ptr.101" = type { %"class.std::__shared_ptr.102" }
%"class.std::__shared_ptr.102" = type { ptr, %"class.std::__shared_count" }
%"class.std::recursive_mutex" = type { %"class.std::__recursive_mutex_base" }
%"class.std::__recursive_mutex_base" = type { %union.pthread_mutex_t }
%union.pthread_mutex_t = type { %struct.__pthread_mutex_s }
%struct.__pthread_mutex_s = type { i32, i32, i32, i32, i32, i16, i16, %struct.__pthread_internal_list }
%struct.__pthread_internal_list = type { ptr, ptr }
%"class.__gnu_cxx::__normal_iterator.182" = type { ptr }

; Function Attrs: mustprogress nounwind uwtable
define linkonce_odr hidden noundef nonnull align 8 dereferenceable(8) ptr @_ZNK9__gnu_cxx17__normal_iteratorIPKN2cv21CascadeClassifierImpl4Data5StageESt6vectorIS4_SaIS4_EEE4baseEv(ptr noundef nonnull align 8 dereferenceable(8) %0) #6 comdat align 2 {
  %2 = alloca ptr, align 8
  store ptr %0, ptr %2, align 8, !tbaa !963
  %3 = load ptr, ptr %2, align 8
  %4 = getelementptr inbounds nuw %"class.__gnu_cxx::__normal_iterator.182", ptr %3, i32 0, i32 0
  ret ptr %4
}

; Function Attrs: mustprogress nounwind uwtable
define linkonce_odr hidden void @_ZN9__gnu_cxx17__normal_iteratorIPKN2cv21CascadeClassifierImpl4Data5StageESt6vectorIS4_SaIS4_EEEC2ERKS6_(ptr noundef nonnull align 8 dereferenceable(8) %0, ptr noundef nonnull align 8 dereferenceable(8) %1) unnamed_addr #6 comdat align 2 {
  %3 = alloca ptr, align 8
  %4 = alloca ptr, align 8
  store ptr %0, ptr %3, align 8, !tbaa !963
  store ptr %1, ptr %4, align 8, !tbaa !965
  %5 = load ptr, ptr %3, align 8
  %6 = getelementptr inbounds nuw %"class.__gnu_cxx::__normal_iterator.182", ptr %5, i32 0, i32 0
  %7 = load ptr, ptr %4, align 8, !tbaa !965
  %8 = load ptr, ptr %7, align 8, !tbaa !355
  store ptr %8, ptr %6, align 8, !tbaa !967
  ret void
}

; Function Attrs: inlinehint mustprogress nounwind uwtable
define linkonce_odr hidden noundef zeroext i1 @_ZN9__gnu_cxxeqIPKN2cv21CascadeClassifierImpl4Data5StageESt6vectorIS4_SaIS4_EEEEbRKNS_17__normal_iteratorIT_T0_EESF_(ptr noundef nonnull align 8 dereferenceable(8) %0, ptr noundef nonnull align 8 dereferenceable(8) %1) #9 comdat {
  %3 = alloca ptr, align 8
  %4 = alloca ptr, align 8
  store ptr %0, ptr %3, align 8, !tbaa !963
  store ptr %1, ptr %4, align 8, !tbaa !963
  %5 = load ptr, ptr %3, align 8, !tbaa !963
  %6 = call noundef nonnull align 8 dereferenceable(8) ptr @_ZNK9__gnu_cxx17__normal_iteratorIPKN2cv21CascadeClassifierImpl4Data5StageESt6vectorIS4_SaIS4_EEE4baseEv(ptr noundef nonnull align 8 dereferenceable(8) %5) #3
  %7 = load ptr, ptr %6, align 8, !tbaa !355
  %8 = load ptr, ptr %4, align 8, !tbaa !963
  %9 = call noundef nonnull align 8 dereferenceable(8) ptr @_ZNK9__gnu_cxx17__normal_iteratorIPKN2cv21CascadeClassifierImpl4Data5StageESt6vectorIS4_SaIS4_EEE4baseEv(ptr noundef nonnull align 8 dereferenceable(8) %8) #3
  %10 = load ptr, ptr %9, align 8, !tbaa !355
  %11 = icmp eq ptr %7, %10
  ret i1 %11
}

; Function Attrs: mustprogress nounwind uwtable
define linkonce_odr hidden ptr @_ZNKSt6vectorIN2cv21CascadeClassifierImpl4Data5StageESaIS3_EE3endEv(ptr noundef nonnull align 8 dereferenceable(24) %0) #6 comdat align 2 {
  %2 = alloca %"class.__gnu_cxx::__normal_iterator.182", align 8
  %3 = alloca ptr, align 8
  store ptr %0, ptr %3, align 8, !tbaa !309
  %4 = load ptr, ptr %3, align 8
  %5 = getelementptr inbounds nuw %"struct.std::_Vector_base.77", ptr %4, i32 0, i32 0
  %6 = getelementptr inbounds nuw %"struct.std::_Vector_base<cv::CascadeClassifierImpl::Data::Stage, std::allocator<cv::CascadeClassifierImpl::Data::Stage>>::_Vector_impl_data", ptr %5, i32 0, i32 1
  call void @_ZN9__gnu_cxx17__normal_iteratorIPKN2cv21CascadeClassifierImpl4Data5StageESt6vectorIS4_SaIS4_EEEC2ERKS6_(ptr noundef nonnull align 8 dereferenceable(8) %2, ptr noundef nonnull align 8 dereferenceable(8) %6) #3
  %7 = getelementptr inbounds nuw %"class.__gnu_cxx::__normal_iterator.182", ptr %2, i32 0, i32 0
  %8 = load ptr, ptr %7, align 8
  ret ptr %8
}

; Function Attrs: mustprogress nounwind uwtable
define linkonce_odr hidden ptr @_ZNKSt6vectorIN2cv21CascadeClassifierImpl4Data5StageESaIS3_EE5beginEv(ptr noundef nonnull align 8 dereferenceable(24) %0) #6 comdat align 2 {
  %2 = alloca %"class.__gnu_cxx::__normal_iterator.182", align 8
  %3 = alloca ptr, align 8
  store ptr %0, ptr %3, align 8, !tbaa !309
  %4 = load ptr, ptr %3, align 8
  %5 = getelementptr inbounds nuw %"struct.std::_Vector_base.77", ptr %4, i32 0, i32 0
  %6 = getelementptr inbounds nuw %"struct.std::_Vector_base<cv::CascadeClassifierImpl::Data::Stage, std::allocator<cv::CascadeClassifierImpl::Data::Stage>>::_Vector_impl_data", ptr %5, i32 0, i32 0
  call void @_ZN9__gnu_cxx17__normal_iteratorIPKN2cv21CascadeClassifierImpl4Data5StageESt6vectorIS4_SaIS4_EEEC2ERKS6_(ptr noundef nonnull align 8 dereferenceable(8) %2, ptr noundef nonnull align 8 dereferenceable(8) %6) #3
  %7 = getelementptr inbounds nuw %"class.__gnu_cxx::__normal_iterator.182", ptr %2, i32 0, i32 0
  %8 = load ptr, ptr %7, align 8
  ret ptr %8
}

; Function Attrs: mustprogress nounwind uwtable
define linkonce_odr hidden noundef zeroext i1 @_ZNKSt6vectorIN2cv21CascadeClassifierImpl4Data5StageESaIS3_EE5emptyEv(ptr noundef nonnull align 8 dereferenceable(24) %0) #6 comdat align 2 {
  %2 = alloca ptr, align 8
  %3 = alloca %"class.__gnu_cxx::__normal_iterator.182", align 8
  %4 = alloca %"class.__gnu_cxx::__normal_iterator.182", align 8
  store ptr %0, ptr %2, align 8, !tbaa !309
  %5 = load ptr, ptr %2, align 8
  call void @llvm.lifetime.start.p0(i64 8, ptr %3) #3
  %6 = call ptr @_ZNKSt6vectorIN2cv21CascadeClassifierImpl4Data5StageESaIS3_EE5beginEv(ptr noundef nonnull align 8 dereferenceable(24) %5) #3
  %7 = getelementptr inbounds nuw %"class.__gnu_cxx::__normal_iterator.182", ptr %3, i32 0, i32 0
  store ptr %6, ptr %7, align 8
  call void @llvm.lifetime.start.p0(i64 8, ptr %4) #3
  %8 = call ptr @_ZNKSt6vectorIN2cv21CascadeClassifierImpl4Data5StageESaIS3_EE3endEv(ptr noundef nonnull align 8 dereferenceable(24) %5) #3
  %9 = getelementptr inbounds nuw %"class.__gnu_cxx::__normal_iterator.182", ptr %4, i32 0, i32 0
  store ptr %8, ptr %9, align 8
  %10 = call noundef zeroext i1 @_ZN9__gnu_cxxeqIPKN2cv21CascadeClassifierImpl4Data5StageESt6vectorIS4_SaIS4_EEEEbRKNS_17__normal_iteratorIT_T0_EESF_(ptr noundef nonnull align 8 dereferenceable(8) %3, ptr noundef nonnull align 8 dereferenceable(8) %4) #3
  call void @llvm.lifetime.end.p0(i64 8, ptr %4) #3
  call void @llvm.lifetime.end.p0(i64 8, ptr %3) #3
  ret i1 %10
}

; Function Attrs: mustprogress nounwind uwtable
define linkonce_odr hidden noundef zeroext i1 @_ZNKSt12__shared_ptrI23CvHaarClassifierCascadeLN9__gnu_cxx12_Lock_policyE2EEcvbEv(ptr noundef nonnull align 8 dereferenceable(16) %0) #6 comdat align 2 {
  %2 = alloca ptr, align 8
  store ptr %0, ptr %2, align 8, !tbaa !304
  %3 = load ptr, ptr %2, align 8
  %4 = getelementptr inbounds nuw %"class.std::__shared_ptr.98", ptr %3, i32 0, i32 0
  %5 = load ptr, ptr %4, align 8, !tbaa !306
  %6 = icmp ne ptr %5, null
  ret i1 %6
}

; Function Attrs: mustprogress nounwind uwtable
define hidden noundef zeroext i1 @_ZNK2cv21CascadeClassifierImpl5emptyEv(ptr noundef nonnull align 8 dereferenceable(752) %0) unnamed_addr #6 align 2 {
  %2 = alloca ptr, align 8
  store ptr %0, ptr %2, align 8, !tbaa !290
  %3 = load ptr, ptr %2, align 8
  %4 = getelementptr inbounds nuw %"class.cv::CascadeClassifierImpl", ptr %3, i32 0, i32 3
  %5 = call noundef zeroext i1 @_ZNKSt12__shared_ptrI23CvHaarClassifierCascadeLN9__gnu_cxx12_Lock_policyE2EEcvbEv(ptr noundef nonnull align 8 dereferenceable(16) %4) #3
  br i1 %5, label %10, label %6

6:                                                ; preds = %1
  %7 = getelementptr inbounds nuw %"class.cv::CascadeClassifierImpl", ptr %3, i32 0, i32 1
  %8 = getelementptr inbounds nuw %"class.cv::CascadeClassifierImpl::Data", ptr %7, i32 0, i32 6
  %9 = call noundef zeroext i1 @_ZNKSt6vectorIN2cv21CascadeClassifierImpl4Data5StageESaIS3_EE5emptyEv(ptr noundef nonnull align 8 dereferenceable(24) %8) #3
  br label %10

10:                                               ; preds = %6, %1
  %11 = phi i1 [ false, %1 ], [ %9, %6 ]
  ret i1 %11
}