; Function Attrs: mustprogress nofree norecurse nosync nounwind willreturn memory(argmem: read) uwtable
define hidden noundef zeroext i1 @_ZNK2cv21CascadeClassifierImpl5emptyEv(ptr noundef nonnull readonly align 8 captures(none) dereferenceable(752) %0) unnamed_addr #17 align 2 {
  %2 = getelementptr inbounds nuw i8, ptr %0, i64 200
  %3 = load ptr, ptr %2, align 8, !tbaa !346
  %.not = icmp eq ptr %3, null
  %4 = getelementptr inbounds nuw i8, ptr %0, i64 40
  %5 = load ptr, ptr %4, align 8
  %6 = getelementptr inbounds nuw i8, ptr %0, i64 48
  %7 = load ptr, ptr %6, align 8
  %8 = icmp eq ptr %5, %7
  %9 = select i1 %.not, i1 %8, i1 false
  ret i1 %9
}